(dp0
Vpseudo
p1
Vjoueur
p2
sVcollection
p3
Vnovoban
p4
sVnumero
p5
L1L
sVmax
p6
L1L
sVscore
p7
L0L
sVhistorique
p8
(lp9
(lp10
(lp11
V#
p12
ag12
ag12
ag12
aV 
p13
ag13
aa(lp14
g12
ag13
ag13
ag12
ag12
ag12
aa(lp15
g12
ag13
ag13
aV$
p16
aV@
p17
ag12
aa(lp18
g12
ag13
aV*
p19
aV.
p20
ag13
ag12
aa(lp21
g12
ag12
ag13
ag13
ag13
ag12
aa(lp22
g13
ag12
ag12
ag12
ag12
ag12
aaas.