(dp0
Vpseudo
p1
Vjoueur
p2
sVcollection
p3
Vnovoban
p4
sVnumero
p5
L1L
sVmax
p6
L1L
sVscore
p7
L10L
sVhistorique
p8
(lp9
(lp10
(lp11
V#
p12
ag12
ag12
ag12
aV 
p13
ag13
aa(lp14
g12
ag13
ag13
ag12
ag12
ag12
aa(lp15
g12
ag13
ag13
aV$
p16
aV@
p17
ag12
aa(lp18
g12
ag13
aV*
p19
aV.
p20
ag13
ag12
aa(lp21
g12
ag12
ag13
ag13
ag13
ag12
aa(lp22
g13
ag12
ag12
ag12
ag12
ag12
aaa(lp23
(lp24
g12
ag12
ag12
ag12
ag13
ag13
aa(lp25
g12
ag13
ag13
ag12
ag12
ag12
aa(lp26
g12
ag13
ag13
ag16
ag13
ag12
aa(lp27
g12
ag13
ag19
ag20
ag17
ag12
aa(lp28
g12
ag12
ag13
ag13
ag13
ag12
aa(lp29
g13
ag12
ag12
ag12
ag12
ag12
aaa(lp30
(lp31
g12
ag12
ag12
ag12
ag13
ag13
aa(lp32
g12
ag13
ag13
ag12
ag12
ag12
aa(lp33
g12
ag13
ag13
ag16
ag13
ag12
aa(lp34
g12
ag13
ag19
ag20
ag13
ag12
aa(lp35
g12
ag12
ag13
ag13
ag17
ag12
aa(lp36
g13
ag12
ag12
ag12
ag12
ag12
aaa(lp37
(lp38
g12
ag12
ag12
ag12
ag13
ag13
aa(lp39
g12
ag13
ag13
ag12
ag12
ag12
aa(lp40
g12
ag13
ag13
ag16
ag13
ag12
aa(lp41
g12
ag13
ag19
ag20
ag13
ag12
aa(lp42
g12
ag12
ag13
ag17
ag13
ag12
aa(lp43
g13
ag12
ag12
ag12
ag12
ag12
aaa(lp44
(lp45
g12
ag12
ag12
ag12
ag13
ag13
aa(lp46
g12
ag13
ag13
ag12
ag12
ag12
aa(lp47
g12
ag13
ag13
ag16
ag13
ag12
aa(lp48
g12
ag13
ag19
ag20
ag13
ag12
aa(lp49
g12
ag12
ag17
ag13
ag13
ag12
aa(lp50
g13
ag12
ag12
ag12
ag12
ag12
aaa(lp51
(lp52
g12
ag12
ag12
ag12
ag13
ag13
aa(lp53
g12
ag13
ag13
ag12
ag12
ag12
aa(lp54
g12
ag13
ag16
ag16
ag13
ag12
aa(lp55
g12
ag13
aV+
p56
ag20
ag13
ag12
aa(lp57
g12
ag12
ag13
ag13
ag13
ag12
aa(lp58
g13
ag12
ag12
ag12
ag12
ag12
aaa(lp59
(lp60
g12
ag12
ag12
ag12
ag13
ag13
aa(lp61
g12
ag13
ag13
ag12
ag12
ag12
aa(lp62
g12
ag13
ag16
ag16
ag13
ag12
aa(lp63
g12
ag17
ag20
ag20
ag13
ag12
aa(lp64
g12
ag12
ag13
ag13
ag13
ag12
aa(lp65
g13
ag12
ag12
ag12
ag12
ag12
aaa(lp66
(lp67
g12
ag12
ag12
ag12
ag13
ag13
aa(lp68
g12
ag13
ag13
ag12
ag12
ag12
aa(lp69
g12
ag17
ag16
ag16
ag13
ag12
aa(lp70
g12
ag13
ag20
ag20
ag13
ag12
aa(lp71
g12
ag12
ag13
ag13
ag13
ag12
aa(lp72
g13
ag12
ag12
ag12
ag12
ag12
aaa(lp73
(lp74
g12
ag12
ag12
ag12
ag13
ag13
aa(lp75
g12
ag17
ag13
ag12
ag12
ag12
aa(lp76
g12
ag13
ag16
ag16
ag13
ag12
aa(lp77
g12
ag13
ag20
ag20
ag13
ag12
aa(lp78
g12
ag12
ag13
ag13
ag13
ag12
aa(lp79
g13
ag12
ag12
ag12
ag12
ag12
aaa(lp80
(lp81
g12
ag12
ag12
ag12
ag13
ag13
aa(lp82
g12
ag13
ag17
ag12
ag12
ag12
aa(lp83
g12
ag13
ag16
ag16
ag13
ag12
aa(lp84
g12
ag13
ag20
ag20
ag13
ag12
aa(lp85
g12
ag12
ag13
ag13
ag13
ag12
aa(lp86
g13
ag12
ag12
ag12
ag12
ag12
aaa(lp87
(lp88
g12
ag12
ag12
ag12
ag13
ag13
aa(lp89
g12
ag13
ag13
ag12
ag12
ag12
aa(lp90
g12
ag13
ag17
ag16
ag13
ag12
aa(lp91
g12
ag13
ag19
ag20
ag13
ag12
aa(lp92
g12
ag12
ag13
ag13
ag13
ag12
aa(lp93
g13
ag12
ag12
ag12
ag12
ag12
aaas.