(dp0
Vpseudo
p1
Vtim
p2
sVcollection
p3
Vnovoban
p4
sVnumero
p5
L8L
sVmax
p6
L9L
sVscore
p7
L0L
sVhistorique
p8
(lp9
(lp10
(lp11
V 
p12
aV#
p13
ag13
ag13
ag13
ag13
ag13
ag12
aa(lp14
g13
ag13
ag12
ag12
ag12
ag12
ag13
ag12
aa(lp15
g13
ag12
aV$
p16
ag13
ag13
ag12
ag13
ag13
aa(lp17
g13
ag12
ag12
ag12
ag12
ag12
ag12
ag13
aa(lp18
g13
ag13
ag12
ag12
aV.
p19
aV@
p20
ag19
ag13
aa(lp21
g12
ag13
ag16
ag13
ag12
ag13
ag13
ag13
aa(lp22
g12
ag13
ag12
ag12
ag12
ag13
ag12
ag12
aa(lp23
g12
ag13
ag13
ag13
ag13
ag13
ag12
ag12
aaas.